(dp0
Vsg_bundle_data
p1
(dp2
Vtype
p3
VCustomNonProjectEntity07
p4
sVid
p5
I81
sVsg_system_name
p6
Vtk-config-default2
p7
sVsg_status_list
p8
Vhidden
p9
sVsg_deprecation_message
p10
NssVsg_version_data
p11
(dp12
Vtype
p13
VCustomNonProjectEntity08
p14
sVid
p15
I4206
sVcode
p16
Vv1.7.2
p17
sVsg_status_list
p18
Vprod
p19
sVdescription
p20
V[No wiki release notes found]
p21
sVtags
p22
(lp23
sVsg_detailed_release_notes
p24
NsVsg_documentation
p25
NsVsg_payload
p26
(dp27
Vurl
p28
Vhttps://s3-proxy.shotgunstudio.com/d18c13bf0e59a9a82f18be518a1b6b508bcbd774/1df5c20af4f0c6384dd916c533edb4b6def53193/tk-config-default2_v1.7.2.zip?response-content-disposition=filename%3D%22tk-config-default2_v1.7.2.zip%22&x-amz-meta-user-id=42&x-amz-meta-user-type=ApiUser&X-Amz-Algorithm=AWS4-HMAC-SHA256&X-Amz-Credential=ASIAYJG6Z4JIS4DISXSY%2F20241109%2Fus-west-2%2Fs3%2Faws4_request&X-Amz-Date=20241109T160500Z&X-Amz-SignedHeaders=host&X-Amz-Expires=900&X-Amz-Security-Token=IQoJb3JpZ2luX2VjEPD%2F%2F%2F%2F%2F%2F%2F%2F%2F%2FwEaCXVzLWVhc3QtMSJHMEUCIFPEv7C%2BvET2nnsJbDTe7v5pCKOONHSX79gBFWq2MHkrAiEAtRQATVHaK1yulrNc1yPI2305TXcT9EqPv0jxWgVqHhgqmAIIeRAAGgw1Njk1NTA0MzA4MDEiDGKChZYgoz6FazZRzir1Aa6dhEkZefKU7JG6KkEnS4jQFonTVVCd9TnHMK9IbluYrP3OqwnRFL0e3Cn4i%2FmwEWt4bgSnDJ2klbGiTKvJx0qiAX1D2mCzxvd4ihc88hsglMFYiGluItx2B%2FiA1%2FgsaBMDlnRDEW1TVYphgBlzJZY2rbO5WrznwFTjDVUW3HPpmb0BZGx5TDnJryBe%2BLqMxDLoCE3jIANvgzZUETUkQfSnf5%2FjpM8qI4cSjUo4r8Ql3tMxs2nzIgLHdm0XmCF3ejdsp25m1jhIH7OfrECxoDoaE9jXjub136%2BGIN5zrAAgaKnL3gsHUX24rTuPSBP4J6LvqFMkMPOPvrkGOp0B9%2B2F4wZXSPWeZZfeFL3xrpRZvFP7u%2F%2F9yiMT8ZFzhKdEK3Efc4RD9bohqGg7zQl%2F5szjQYiQTXi5XgWC8hJUZYs2uTsG6Sv7t4CE%2F%2BLL%2Bpierbbsxp4BX4DPOCrCJsnb0LNKsPyVI%2FfMQNasodywxGK53dfwRJLixHH23ga%2FsytjV3f8ccq6pHxuwCNiAedLr4oA4%2B4xDvdvQt%2Fg5A%3D%3D&X-Amz-Signature=e45026ffdfe240ac67c4555a3816b8fc58743b1ae043570846c3cd4c16ca642c
p29
sVname
p30
Vtk-config-default2_v1.7.2.zip
p31
sVcontent_type
p32
Vapplication/zip
p33
sVlink_type
p34
Vupload
p35
sg13
VAttachment
p36
sg15
I33906
sss.